target datalayout = "e-m:e-p270:32:32-p271:32:32-p272:64:64-i64:64-i128:128-f80:128-n8:16:32:64-S128"
target triple = "x86_64-pc-linux-gnu"

@_ZN12_GLOBAL__N_113sysconf_errorE = internal global i8 0, align 1

; Function Attrs: mustprogress nounwind uwtable
define hidden noundef i64 @_ZN4test7sysconfEi(i32 noundef %0) #0 {
  %2 = alloca i64, align 8
  %3 = alloca i32, align 4
  %4 = alloca i64, align 8
  %5 = alloca i32, align 4
  store i32 %0, ptr %3, align 4, !tbaa !12
  call void @llvm.lifetime.start.p0(i64 8, ptr %4) #16
  %6 = load i32, ptr %3, align 4, !tbaa !12
  %7 = call i64 @sysconf(i32 noundef %6) #16
  store i64 %7, ptr %4, align 8, !tbaa !26
  %8 = load i8, ptr @_ZN12_GLOBAL__N_113sysconf_errorE, align 1, !tbaa !59, !range !90, !noundef !91
  %9 = trunc i8 %8 to i1
  br i1 %9, label %12, label %10

10:                                               ; preds = %1
  %11 = load i64, ptr %4, align 8, !tbaa !26
  store i64 %11, ptr %2, align 8
  store i32 1, ptr %5, align 4
  br label %14

12:                                               ; preds = %1
  %13 = call ptr @__errno_location() #20
  store i32 22, ptr %13, align 4, !tbaa !12
  store i64 -1, ptr %2, align 8
  store i32 1, ptr %5, align 4
  br label %14

14:                                               ; preds = %12, %10
  call void @llvm.lifetime.end.p0(i64 8, ptr %4) #16
  %15 = load i64, ptr %2, align 8
  ret i64 %15
}