; Function Attrs: mustprogress nounwind uwtable
define hidden noundef i64 @_ZN4test7sysconfEi(i32 noundef %0) local_unnamed_addr #0 {
  %2 = tail call i64 @sysconf(i32 noundef %0) #29
  %.b3 = load i1, ptr @_ZN12_GLOBAL__N_113sysconf_errorE, align 1
  br i1 %.b3, label %3, label %5

3:                                                ; preds = %1
  %4 = tail call ptr @__errno_location() #28
  store i32 22, ptr %4, align 4, !tbaa !10
  br label %5

5:                                                ; preds = %1, %3
  %.0 = phi i64 [ -1, %3 ], [ %2, %1 ]
  ret i64 %.0
}